target datalayout = "e-m:e-p270:32:32-p271:32:32-p272:64:64-i64:64-i128:128-f80:128-n8:16:32:64-S128"
target triple = "x86_64-pc-linux-gnu"

%struct.newhope_poly_st = type { [1024 x i16] }
%struct.aes_key_st = type { [60 x i32], i32 }

; Function Attrs: nounwind uwtable
define hidden void @newhope_poly_uniform(ptr noundef %0, ptr noundef %1) #0 {
  %3 = alloca ptr, align 8
  %4 = alloca ptr, align 8
  %5 = alloca [16 x i8], align 16
  %6 = alloca %struct.aes_key_st, align 4
  %7 = alloca [16 x i8], align 16
  %8 = alloca [2688 x i8], align 16
  %9 = alloca i32, align 4
  %10 = alloca i64, align 8
  %11 = alloca i64, align 8
  %12 = alloca i16, align 2
  store ptr %0, ptr %3, align 8, !tbaa !6
  store ptr %1, ptr %4, align 8, !tbaa !11
  call void @llvm.lifetime.start.p0(i64 16, ptr %5) #5
  %13 = getelementptr inbounds [16 x i8], ptr %5, i64 0, i64 0
  %14 = load ptr, ptr %4, align 8, !tbaa !11
  %15 = getelementptr inbounds i8, ptr %14, i64 16
  call void @llvm.memcpy.p0.p0.i64(ptr align 16 %13, ptr align 1 %15, i64 16, i1 false)
  call void @llvm.lifetime.start.p0(i64 244, ptr %6) #5
  %16 = load ptr, ptr %4, align 8, !tbaa !11
  %17 = call i32 @AES_set_encrypt_key(ptr noundef %16, i32 noundef 128, ptr noundef %6)
  call void @llvm.lifetime.start.p0(i64 16, ptr %7) #5
  %18 = getelementptr inbounds [16 x i8], ptr %7, i64 0, i64 0
  call void @llvm.memset.p0.i64(ptr align 16 %18, i8 0, i64 16, i1 false)
  call void @llvm.lifetime.start.p0(i64 2688, ptr %8) #5
  %19 = getelementptr inbounds [2688 x i8], ptr %8, i64 0, i64 0
  call void @llvm.memset.p0.i64(ptr align 16 %19, i8 0, i64 2688, i1 false)
  call void @llvm.lifetime.start.p0(i64 4, ptr %9) #5
  store i32 0, ptr %9, align 4, !tbaa !13
  %20 = getelementptr inbounds [2688 x i8], ptr %8, i64 0, i64 0
  %21 = getelementptr inbounds [2688 x i8], ptr %8, i64 0, i64 0
  %22 = getelementptr inbounds [16 x i8], ptr %5, i64 0, i64 0
  %23 = getelementptr inbounds [16 x i8], ptr %7, i64 0, i64 0
  call void @AES_ctr128_encrypt(ptr noundef %20, ptr noundef %21, i64 noundef 2688, ptr noundef %6, ptr noundef %22, ptr noundef %23, ptr noundef %9)
  call void @llvm.lifetime.start.p0(i64 8, ptr %10) #5
  store i64 0, ptr %10, align 8, !tbaa !21
  call void @llvm.lifetime.start.p0(i64 8, ptr %11) #5
  store i64 0, ptr %11, align 8, !tbaa !21
  br label %24

24:                                               ; preds = %63, %2
  %25 = load i64, ptr %11, align 8, !tbaa !21
  %26 = icmp ult i64 %25, 1024
  br i1 %26, label %27, label %64

27:                                               ; preds = %24
  call void @llvm.lifetime.start.p0(i64 2, ptr %12) #5
  %28 = load i64, ptr %10, align 8, !tbaa !21
  %29 = getelementptr inbounds nuw [2688 x i8], ptr %8, i64 0, i64 %28
  %30 = load i8, ptr %29, align 1, !tbaa !15
  %31 = zext i8 %30 to i32
  %32 = load i64, ptr %10, align 8, !tbaa !21
  %33 = add i64 %32, 1
  %34 = getelementptr inbounds nuw [2688 x i8], ptr %8, i64 0, i64 %33
  %35 = load i8, ptr %34, align 1, !tbaa !15
  %36 = zext i8 %35 to i16
  %37 = zext i16 %36 to i32
  %38 = shl i32 %37, 8
  %39 = or i32 %31, %38
  %40 = and i32 %39, 16383
  %41 = trunc i32 %40 to i16
  store i16 %41, ptr %12, align 2, !tbaa !16
  %42 = load i16, ptr %12, align 2, !tbaa !16
  %43 = zext i16 %42 to i32
  %44 = icmp slt i32 %43, 12289
  br i1 %44, label %45, label %52

45:                                               ; preds = %27
  %46 = load i16, ptr %12, align 2, !tbaa !16
  %47 = load ptr, ptr %3, align 8, !tbaa !6
  %48 = getelementptr inbounds nuw %struct.newhope_poly_st, ptr %47, i32 0, i32 0
  %49 = load i64, ptr %11, align 8, !tbaa !21
  %50 = add i64 %49, 1
  store i64 %50, ptr %11, align 8, !tbaa !21
  %51 = getelementptr inbounds nuw [1024 x i16], ptr %48, i64 0, i64 %49
  store i16 %46, ptr %51, align 2, !tbaa !16
  br label %52

52:                                               ; preds = %45, %27
  %53 = load i64, ptr %10, align 8, !tbaa !21
  %54 = add i64 %53, 2
  store i64 %54, ptr %10, align 8, !tbaa !21
  %55 = load i64, ptr %10, align 8, !tbaa !21
  %56 = icmp ugt i64 %55, 2686
  br i1 %56, label %57, label %63

57:                                               ; preds = %52
  %58 = getelementptr inbounds [2688 x i8], ptr %8, i64 0, i64 0
  call void @llvm.memset.p0.i64(ptr align 16 %58, i8 0, i64 2688, i1 false)
  %59 = getelementptr inbounds [2688 x i8], ptr %8, i64 0, i64 0
  %60 = getelementptr inbounds [2688 x i8], ptr %8, i64 0, i64 0
  %61 = getelementptr inbounds [16 x i8], ptr %5, i64 0, i64 0
  %62 = getelementptr inbounds [16 x i8], ptr %7, i64 0, i64 0
  call void @AES_ctr128_encrypt(ptr noundef %59, ptr noundef %60, i64 noundef 2688, ptr noundef %6, ptr noundef %61, ptr noundef %62, ptr noundef %9)
  store i64 0, ptr %10, align 8, !tbaa !21
  br label %63

63:                                               ; preds = %57, %52
  call void @llvm.lifetime.end.p0(i64 2, ptr %12) #5
  br label %24, !llvm.loop !23

64:                                               ; preds = %24
  call void @llvm.lifetime.end.p0(i64 8, ptr %11) #5
  call void @llvm.lifetime.end.p0(i64 8, ptr %10) #5
  call void @llvm.lifetime.end.p0(i64 4, ptr %9) #5
  call void @llvm.lifetime.end.p0(i64 2688, ptr %8) #5
  call void @llvm.lifetime.end.p0(i64 16, ptr %7) #5
  call void @llvm.lifetime.end.p0(i64 244, ptr %6) #5
  call void @llvm.lifetime.end.p0(i64 16, ptr %5) #5
  ret void
}