; Function Attrs: nounwind uwtable
define hidden void @newhope_poly_uniform(ptr noundef writeonly captures(none) %0, ptr noundef %1) local_unnamed_addr #2 {
  %3 = alloca [16 x i8], align 16
  %4 = alloca %struct.aes_key_st, align 4
  %5 = alloca [16 x i8], align 16
  %6 = alloca [2688 x i8], align 16
  %7 = alloca i32, align 4
  call void @llvm.lifetime.start.p0(i64 16, ptr nonnull %3) #6
  %8 = getelementptr inbounds nuw i8, ptr %1, i64 16
  call void @llvm.memcpy.p0.p0.i64(ptr noundef nonnull align 16 dereferenceable(16) %3, ptr noundef nonnull align 1 dereferenceable(16) %8, i64 16, i1 false)
  call void @llvm.lifetime.start.p0(i64 244, ptr nonnull %4) #6
  %9 = call i32 @AES_set_encrypt_key(ptr noundef %1, i32 noundef 128, ptr noundef nonnull %4) #6
  call void @llvm.lifetime.start.p0(i64 16, ptr nonnull %5) #6
  call void @llvm.memset.p0.i64(ptr noundef nonnull align 16 dereferenceable(16) %5, i8 0, i64 16, i1 false)
  call void @llvm.lifetime.start.p0(i64 2688, ptr nonnull %6) #6
  call void @llvm.memset.p0.i64(ptr noundef nonnull align 16 dereferenceable(2688) %6, i8 0, i64 2688, i1 false)
  call void @llvm.lifetime.start.p0(i64 4, ptr nonnull %7) #6
  store i32 0, ptr %7, align 4, !tbaa !14
  call void @AES_ctr128_encrypt(ptr noundef nonnull %6, ptr noundef nonnull %6, i64 noundef 2688, ptr noundef nonnull %4, ptr noundef nonnull %3, ptr noundef nonnull %5, ptr noundef nonnull %7) #6
  br label %10

10:                                               ; preds = %2, %28
  %.014 = phi i64 [ 0, %2 ], [ %.1, %28 ]
  %.01013 = phi i64 [ 0, %2 ], [ %.111, %28 ]
  %11 = getelementptr inbounds nuw [2688 x i8], ptr %6, i64 0, i64 %.014
  %12 = load i8, ptr %11, align 1, !tbaa !6
  %13 = zext i8 %12 to i16
  %14 = add nuw nsw i64 %.014, 1
  %15 = getelementptr inbounds nuw [2688 x i8], ptr %6, i64 0, i64 %14
  %16 = load i8, ptr %15, align 1, !tbaa !6
  %17 = zext i8 %16 to i16
  %18 = shl nuw i16 %17, 8
  %.masked = and i16 %18, 16128
  %19 = or disjoint i16 %.masked, %13
  %20 = icmp samesign ult i16 %19, 12289
  br i1 %20, label %21, label %24

21:                                               ; preds = %10
  %22 = add nuw nsw i64 %.01013, 1
  %23 = getelementptr inbounds nuw [1024 x i16], ptr %0, i64 0, i64 %.01013
  store i16 %19, ptr %23, align 2, !tbaa !9
  br label %24

24:                                               ; preds = %21, %10
  %.111 = phi i64 [ %22, %21 ], [ %.01013, %10 ]
  %25 = add nsw i64 %.014, 2
  %26 = icmp ugt i64 %25, 2686
  br i1 %26, label %27, label %28

27:                                               ; preds = %24
  call void @llvm.memset.p0.i64(ptr noundef nonnull align 16 dereferenceable(2688) %6, i8 0, i64 2688, i1 false)
  call void @AES_ctr128_encrypt(ptr noundef nonnull %6, ptr noundef nonnull %6, i64 noundef 2688, ptr noundef nonnull %4, ptr noundef nonnull %3, ptr noundef nonnull %5, ptr noundef nonnull %7) #6
  br label %28

28:                                               ; preds = %27, %24
  %.1 = phi i64 [ 0, %27 ], [ %25, %24 ]
  %29 = icmp ult i64 %.111, 1024
  br i1 %29, label %10, label %30, !llvm.loop !16

30:                                               ; preds = %28
  call void @llvm.lifetime.end.p0(i64 4, ptr nonnull %7) #6
  call void @llvm.lifetime.end.p0(i64 2688, ptr nonnull %6) #6
  call void @llvm.lifetime.end.p0(i64 16, ptr nonnull %5) #6
  call void @llvm.lifetime.end.p0(i64 244, ptr nonnull %4) #6
  call void @llvm.lifetime.end.p0(i64 16, ptr nonnull %3) #6
  ret void
}